target datalayout = "e-m:e-p270:32:32-p271:32:32-p272:64:64-i64:64-i128:128-f80:128-n8:16:32:64-S128"
target triple = "x86_64-pc-linux-gnu"

@hf_srvloc_url_reserved = internal global i32 0, align 4
@hf_srvloc_url_lifetime = internal global i32 0, align 4
@hf_srvloc_url_urllen = internal global i32 0, align 4
@hf_srvloc_url_url = internal global i32 0, align 4
@hf_srvloc_url_numauths = internal global i32 0, align 4
@hf_srvloc_authblkv2_bsd = internal global i32 0, align 4
@hf_srvloc_authblkv2_len = internal global i32 0, align 4
@hf_srvloc_authblkv2_timestamp = internal global i32 0, align 4
@hf_srvloc_authblkv2_slpspilen = internal global i32 0, align 4
@hf_srvloc_authblkv2_slpspi = internal global i32 0, align 4

; Function Attrs: null_pointer_is_valid sspstrong uwtable
define internal i32 @dissect_authblk_v2(ptr noundef %0, i32 noundef %1, ptr noundef %2) #0 {
  %4 = alloca ptr, align 8
  %5 = alloca i32, align 4
  %6 = alloca ptr, align 8
  %7 = alloca i16, align 2
  store ptr %0, ptr %4, align 8
  store i32 %1, ptr %5, align 4
  store ptr %2, ptr %6, align 8
  call void @llvm.lifetime.start.p0(i64 2, ptr %7) #7
  %8 = load ptr, ptr %6, align 8
  %9 = load i32, ptr @hf_srvloc_authblkv2_bsd, align 4
  %10 = load ptr, ptr %4, align 8
  %11 = load i32, ptr %5, align 4
  %12 = call ptr @proto_tree_add_item(ptr noundef %8, i32 noundef %9, ptr noundef %10, i32 noundef %11, i32 noundef 2, i32 noundef 0)
  %13 = load ptr, ptr %6, align 8
  %14 = load i32, ptr @hf_srvloc_authblkv2_len, align 4
  %15 = load ptr, ptr %4, align 8
  %16 = load i32, ptr %5, align 4
  %17 = add i32 %16, 2
  %18 = call ptr @proto_tree_add_item(ptr noundef %13, i32 noundef %14, ptr noundef %15, i32 noundef %17, i32 noundef 2, i32 noundef 0)
  %19 = load ptr, ptr %6, align 8
  %20 = load i32, ptr @hf_srvloc_authblkv2_timestamp, align 4
  %21 = load ptr, ptr %4, align 8
  %22 = load i32, ptr %5, align 4
  %23 = add i32 %22, 4
  %24 = call ptr @proto_tree_add_item(ptr noundef %19, i32 noundef %20, ptr noundef %21, i32 noundef %23, i32 noundef 4, i32 noundef 18)
  %25 = load ptr, ptr %4, align 8
  %26 = load i32, ptr %5, align 4
  %27 = add i32 %26, 8
  %28 = call zeroext i16 @tvb_get_ntohs(ptr noundef %25, i32 noundef %27)
  store i16 %28, ptr %7, align 2
  %29 = load ptr, ptr %6, align 8
  %30 = load i32, ptr @hf_srvloc_authblkv2_slpspilen, align 4
  %31 = load ptr, ptr %4, align 8
  %32 = load i32, ptr %5, align 4
  %33 = add i32 %32, 8
  %34 = load i16, ptr %7, align 2
  %35 = zext i16 %34 to i32
  %36 = call ptr @proto_tree_add_uint(ptr noundef %29, i32 noundef %30, ptr noundef %31, i32 noundef %33, i32 noundef 2, i32 noundef %35)
  %37 = load i32, ptr %5, align 4
  %38 = add i32 %37, 10
  store i32 %38, ptr %5, align 4
  %39 = load ptr, ptr %6, align 8
  %40 = load i32, ptr @hf_srvloc_authblkv2_slpspi, align 4
  %41 = load ptr, ptr %4, align 8
  %42 = load i32, ptr %5, align 4
  %43 = load i16, ptr %7, align 2
  %44 = zext i16 %43 to i32
  %45 = call ptr @proto_tree_add_item(ptr noundef %39, i32 noundef %40, ptr noundef %41, i32 noundef %42, i32 noundef %44, i32 noundef 0)
  %46 = load i16, ptr %7, align 2
  %47 = zext i16 %46 to i32
  %48 = load i32, ptr %5, align 4
  %49 = add i32 %48, %47
  store i32 %49, ptr %5, align 4
  %50 = load i32, ptr %5, align 4
  call void @llvm.lifetime.end.p0(i64 2, ptr %7) #7
  ret i32 %50
}

; Function Attrs: null_pointer_is_valid sspstrong uwtable
define internal i32 @dissect_url_entry_v2(ptr noundef %0, i32 noundef %1, ptr noundef %2) #0 {
  %4 = alloca ptr, align 8
  %5 = alloca i32, align 4
  %6 = alloca ptr, align 8
  %7 = alloca i8, align 1
  %8 = alloca i16, align 2
  %9 = alloca i8, align 1
  store ptr %0, ptr %4, align 8
  store i32 %1, ptr %5, align 4
  store ptr %2, ptr %6, align 8
  call void @llvm.lifetime.start.p0(i64 1, ptr %7) #7
  call void @llvm.lifetime.start.p0(i64 2, ptr %8) #7
  call void @llvm.lifetime.start.p0(i64 1, ptr %9) #7
  %10 = load ptr, ptr %4, align 8
  %11 = load i32, ptr %5, align 4
  %12 = call zeroext i8 @tvb_get_uint8(ptr noundef %10, i32 noundef %11)
  store i8 %12, ptr %7, align 1
  %13 = load ptr, ptr %6, align 8
  %14 = load i32, ptr @hf_srvloc_url_reserved, align 4
  %15 = load ptr, ptr %4, align 8
  %16 = load i32, ptr %5, align 4
  %17 = load i8, ptr %7, align 1
  %18 = zext i8 %17 to i32
  %19 = call ptr @proto_tree_add_uint(ptr noundef %13, i32 noundef %14, ptr noundef %15, i32 noundef %16, i32 noundef 1, i32 noundef %18)
  %20 = load i32, ptr %5, align 4
  %21 = add i32 %20, 1
  store i32 %21, ptr %5, align 4
  %22 = load ptr, ptr %6, align 8
  %23 = load i32, ptr @hf_srvloc_url_lifetime, align 4
  %24 = load ptr, ptr %4, align 8
  %25 = load i32, ptr %5, align 4
  %26 = call ptr @proto_tree_add_item(ptr noundef %22, i32 noundef %23, ptr noundef %24, i32 noundef %25, i32 noundef 2, i32 noundef 0)
  %27 = load i32, ptr %5, align 4
  %28 = add i32 %27, 2
  store i32 %28, ptr %5, align 4
  %29 = load ptr, ptr %4, align 8
  %30 = load i32, ptr %5, align 4
  %31 = call zeroext i16 @tvb_get_ntohs(ptr noundef %29, i32 noundef %30)
  store i16 %31, ptr %8, align 2
  %32 = load ptr, ptr %6, align 8
  %33 = load i32, ptr @hf_srvloc_url_urllen, align 4
  %34 = load ptr, ptr %4, align 8
  %35 = load i32, ptr %5, align 4
  %36 = load i16, ptr %8, align 2
  %37 = zext i16 %36 to i32
  %38 = call ptr @proto_tree_add_uint(ptr noundef %32, i32 noundef %33, ptr noundef %34, i32 noundef %35, i32 noundef 2, i32 noundef %37)
  %39 = load i32, ptr %5, align 4
  %40 = add i32 %39, 2
  store i32 %40, ptr %5, align 4
  %41 = load ptr, ptr %6, align 8
  %42 = load i32, ptr @hf_srvloc_url_url, align 4
  %43 = load ptr, ptr %4, align 8
  %44 = load i32, ptr %5, align 4
  %45 = load i16, ptr %8, align 2
  %46 = zext i16 %45 to i32
  %47 = call ptr @proto_tree_add_item(ptr noundef %41, i32 noundef %42, ptr noundef %43, i32 noundef %44, i32 noundef %46, i32 noundef 0)
  %48 = load i16, ptr %8, align 2
  %49 = zext i16 %48 to i32
  %50 = load i32, ptr %5, align 4
  %51 = add i32 %50, %49
  store i32 %51, ptr %5, align 4
  %52 = load ptr, ptr %4, align 8
  %53 = load i32, ptr %5, align 4
  %54 = call zeroext i8 @tvb_get_uint8(ptr noundef %52, i32 noundef %53)
  store i8 %54, ptr %9, align 1
  %55 = load ptr, ptr %6, align 8
  %56 = load i32, ptr @hf_srvloc_url_numauths, align 4
  %57 = load ptr, ptr %4, align 8
  %58 = load i32, ptr %5, align 4
  %59 = load i8, ptr %9, align 1
  %60 = zext i8 %59 to i32
  %61 = call ptr @proto_tree_add_uint(ptr noundef %55, i32 noundef %56, ptr noundef %57, i32 noundef %58, i32 noundef 1, i32 noundef %60)
  %62 = load i32, ptr %5, align 4
  %63 = add i32 %62, 1
  store i32 %63, ptr %5, align 4
  br label %64

64:                                               ; preds = %68, %3
  %65 = load i8, ptr %9, align 1
  %66 = zext i8 %65 to i32
  %67 = icmp sgt i32 %66, 0
  br i1 %67, label %68, label %75

68:                                               ; preds = %64
  %69 = load ptr, ptr %4, align 8
  %70 = load i32, ptr %5, align 4
  %71 = load ptr, ptr %6, align 8
  %72 = call i32 @dissect_authblk_v2(ptr noundef %69, i32 noundef %70, ptr noundef %71)
  store i32 %72, ptr %5, align 4
  %73 = load i8, ptr %9, align 1
  %74 = add i8 %73, -1
  store i8 %74, ptr %9, align 1
  br label %64, !llvm.loop !19

75:                                               ; preds = %64
  %76 = load i32, ptr %5, align 4
  call void @llvm.lifetime.end.p0(i64 1, ptr %9) #7
  call void @llvm.lifetime.end.p0(i64 2, ptr %8) #7
  call void @llvm.lifetime.end.p0(i64 1, ptr %7) #7
  ret i32 %76
}