; Function Attrs: null_pointer_is_valid sspstrong uwtable
define internal fastcc noundef i32 @dissect_url_entry_v2(ptr noundef %0, i32 noundef %1, ptr noundef %2) unnamed_addr #0 {
  %4 = tail call zeroext i8 @tvb_get_uint8(ptr noundef %0, i32 noundef %1)
  %5 = load i32, ptr @hf_srvloc_url_reserved, align 4
  %6 = zext i8 %4 to i32
  %7 = tail call ptr @proto_tree_add_uint(ptr noundef %2, i32 noundef %5, ptr noundef %0, i32 noundef %1, i32 noundef 1, i32 noundef %6)
  %8 = add i32 %1, 1
  %9 = load i32, ptr @hf_srvloc_url_lifetime, align 4
  %10 = tail call ptr @proto_tree_add_item(ptr noundef %2, i32 noundef %9, ptr noundef %0, i32 noundef %8, i32 noundef 2, i32 noundef 0)
  %11 = add i32 %1, 3
  %12 = tail call zeroext i16 @tvb_get_ntohs(ptr noundef %0, i32 noundef %11)
  %13 = load i32, ptr @hf_srvloc_url_urllen, align 4
  %14 = zext i16 %12 to i32
  %15 = tail call ptr @proto_tree_add_uint(ptr noundef %2, i32 noundef %13, ptr noundef %0, i32 noundef %11, i32 noundef 2, i32 noundef %14)
  %16 = add i32 %1, 5
  %17 = load i32, ptr @hf_srvloc_url_url, align 4
  %18 = tail call ptr @proto_tree_add_item(ptr noundef %2, i32 noundef %17, ptr noundef %0, i32 noundef %16, i32 noundef %14, i32 noundef 0)
  %19 = add i32 %16, %14
  %20 = tail call zeroext i8 @tvb_get_uint8(ptr noundef %0, i32 noundef %19)
  %21 = load i32, ptr @hf_srvloc_url_numauths, align 4
  %22 = zext i8 %20 to i32
  %23 = tail call ptr @proto_tree_add_uint(ptr noundef %2, i32 noundef %21, ptr noundef %0, i32 noundef %19, i32 noundef 1, i32 noundef %22)
  %24 = add i32 %19, 1
  %.not37 = icmp eq i8 %20, 0
  br i1 %.not37, label %._crit_edge, label %.lr.ph

.lr.ph:                                           ; preds = %3, %.lr.ph
  %.039 = phi i8 [ %42, %.lr.ph ], [ %20, %3 ]
  %.03638 = phi i32 [ %41, %.lr.ph ], [ %24, %3 ]
  %25 = load i32, ptr @hf_srvloc_authblkv2_bsd, align 4
  %26 = tail call ptr @proto_tree_add_item(ptr noundef %2, i32 noundef %25, ptr noundef %0, i32 noundef %.03638, i32 noundef 2, i32 noundef 0)
  %27 = load i32, ptr @hf_srvloc_authblkv2_len, align 4
  %28 = add i32 %.03638, 2
  %29 = tail call ptr @proto_tree_add_item(ptr noundef %2, i32 noundef %27, ptr noundef %0, i32 noundef %28, i32 noundef 2, i32 noundef 0)
  %30 = load i32, ptr @hf_srvloc_authblkv2_timestamp, align 4
  %31 = add i32 %.03638, 4
  %32 = tail call ptr @proto_tree_add_item(ptr noundef %2, i32 noundef %30, ptr noundef %0, i32 noundef %31, i32 noundef 4, i32 noundef 18)
  %33 = add i32 %.03638, 8
  %34 = tail call zeroext i16 @tvb_get_ntohs(ptr noundef %0, i32 noundef %33)
  %35 = load i32, ptr @hf_srvloc_authblkv2_slpspilen, align 4
  %36 = zext i16 %34 to i32
  %37 = tail call ptr @proto_tree_add_uint(ptr noundef %2, i32 noundef %35, ptr noundef %0, i32 noundef %33, i32 noundef 2, i32 noundef %36)
  %38 = add i32 %.03638, 10
  %39 = load i32, ptr @hf_srvloc_authblkv2_slpspi, align 4
  %40 = tail call ptr @proto_tree_add_item(ptr noundef %2, i32 noundef %39, ptr noundef %0, i32 noundef %38, i32 noundef %36, i32 noundef 0)
  %41 = add i32 %38, %36
  %42 = add i8 %.039, -1
  %.not = icmp eq i8 %42, 0
  br i1 %.not, label %._crit_edge, label %.lr.ph, !llvm.loop !19

._crit_edge:                                      ; preds = %.lr.ph, %3
  %.036.lcssa = phi i32 [ %24, %3 ], [ %41, %.lr.ph ]
  ret i32 %.036.lcssa
}